target datalayout = "e-m:e-p270:32:32-p271:32:32-p272:64:64-i64:64-i128:128-f80:128-n8:16:32:64-S128"
target triple = "x86_64-pc-linux-gnu"

%struct.strbuf = type { i64, i64, ptr }

@__const.escaped_pattern.final = private unnamed_addr constant %struct.strbuf { i64 0, i64 0, ptr @strbuf_slopbuf }, align 8
@sane_ctype = external constant [256 x i8], align 16

; Function Attrs: inlinehint nounwind uwtable
define internal i64 @strbuf_avail(ptr noundef %0) #4 {
  %2 = alloca ptr, align 8
  store ptr %0, ptr %2, align 8, !tbaa !152
  %3 = load ptr, ptr %2, align 8, !tbaa !152
  %4 = getelementptr inbounds nuw %struct.strbuf, ptr %3, i32 0, i32 0
  %5 = load i64, ptr %4, align 8, !tbaa !154
  %6 = icmp ne i64 %5, 0
  br i1 %6, label %7, label %16

7:                                                ; preds = %1
  %8 = load ptr, ptr %2, align 8, !tbaa !152
  %9 = getelementptr inbounds nuw %struct.strbuf, ptr %8, i32 0, i32 0
  %10 = load i64, ptr %9, align 8, !tbaa !154
  %11 = load ptr, ptr %2, align 8, !tbaa !152
  %12 = getelementptr inbounds nuw %struct.strbuf, ptr %11, i32 0, i32 1
  %13 = load i64, ptr %12, align 8, !tbaa !134
  %14 = sub i64 %10, %13
  %15 = sub i64 %14, 1
  br label %17

16:                                               ; preds = %1
  br label %17

17:                                               ; preds = %16, %7
  %18 = phi i64 [ %15, %7 ], [ 0, %16 ]
  ret i64 %18
}

; Function Attrs: inlinehint nounwind uwtable
define internal void @strbuf_addch(ptr noundef %0, i32 noundef %1) #4 {
  %3 = alloca ptr, align 8
  %4 = alloca i32, align 4
  store ptr %0, ptr %3, align 8, !tbaa !152
  store i32 %1, ptr %4, align 4, !tbaa !4
  %5 = load ptr, ptr %3, align 8, !tbaa !152
  %6 = call i64 @strbuf_avail(ptr noundef %5)
  %7 = icmp ne i64 %6, 0
  br i1 %7, label %10, label %8

8:                                                ; preds = %2
  %9 = load ptr, ptr %3, align 8, !tbaa !152
  call void @strbuf_grow(ptr noundef %9, i64 noundef 1)
  br label %10

10:                                               ; preds = %8, %2
  %11 = load i32, ptr %4, align 4, !tbaa !4
  %12 = trunc i32 %11 to i8
  %13 = load ptr, ptr %3, align 8, !tbaa !152
  %14 = getelementptr inbounds nuw %struct.strbuf, ptr %13, i32 0, i32 2
  %15 = load ptr, ptr %14, align 8, !tbaa !148
  %16 = load ptr, ptr %3, align 8, !tbaa !152
  %17 = getelementptr inbounds nuw %struct.strbuf, ptr %16, i32 0, i32 1
  %18 = load i64, ptr %17, align 8, !tbaa !134
  %19 = add i64 %18, 1
  store i64 %19, ptr %17, align 8, !tbaa !134
  %20 = getelementptr inbounds nuw i8, ptr %15, i64 %18
  store i8 %12, ptr %20, align 1, !tbaa !90
  %21 = load ptr, ptr %3, align 8, !tbaa !152
  %22 = getelementptr inbounds nuw %struct.strbuf, ptr %21, i32 0, i32 2
  %23 = load ptr, ptr %22, align 8, !tbaa !148
  %24 = load ptr, ptr %3, align 8, !tbaa !152
  %25 = getelementptr inbounds nuw %struct.strbuf, ptr %24, i32 0, i32 1
  %26 = load i64, ptr %25, align 8, !tbaa !134
  %27 = getelementptr inbounds nuw i8, ptr %23, i64 %26
  store i8 0, ptr %27, align 1, !tbaa !90
  ret void
}

; Function Attrs: nounwind uwtable
define internal ptr @escaped_pattern(ptr noundef %0) #0 {
  %2 = alloca ptr, align 8
  %3 = alloca ptr, align 8
  %4 = alloca %struct.strbuf, align 8
  store ptr %0, ptr %2, align 8, !tbaa !11
  call void @llvm.lifetime.start.p0(i64 8, ptr %3) #9
  %5 = load ptr, ptr %2, align 8, !tbaa !11
  store ptr %5, ptr %3, align 8, !tbaa !11
  call void @llvm.lifetime.start.p0(i64 24, ptr %4) #9
  call void @llvm.memcpy.p0.p0.i64(ptr align 8 %4, ptr align 8 @__const.escaped_pattern.final, i64 24, i1 false)
  br label %6

6:                                                ; preds = %20, %1
  %7 = load ptr, ptr %3, align 8, !tbaa !11
  %8 = load i8, ptr %7, align 1, !tbaa !90
  %9 = icmp ne i8 %8, 0
  br i1 %9, label %10, label %26

10:                                               ; preds = %6
  %11 = load ptr, ptr %3, align 8, !tbaa !11
  %12 = load i8, ptr %11, align 1, !tbaa !90
  %13 = zext i8 %12 to i64
  %14 = getelementptr inbounds nuw [256 x i8], ptr @sane_ctype, i64 0, i64 %13
  %15 = load i8, ptr %14, align 1, !tbaa !90
  %16 = zext i8 %15 to i32
  %17 = and i32 %16, 8
  %18 = icmp ne i32 %17, 0
  br i1 %18, label %19, label %20

19:                                               ; preds = %10
  call void @strbuf_addch(ptr noundef %4, i32 noundef 92)
  br label %20

20:                                               ; preds = %19, %10
  %21 = load ptr, ptr %3, align 8, !tbaa !11
  %22 = load i8, ptr %21, align 1, !tbaa !90
  %23 = sext i8 %22 to i32
  call void @strbuf_addch(ptr noundef %4, i32 noundef %23)
  %24 = load ptr, ptr %3, align 8, !tbaa !11
  %25 = getelementptr inbounds nuw i8, ptr %24, i32 1
  store ptr %25, ptr %3, align 8, !tbaa !11
  br label %6, !llvm.loop !162

26:                                               ; preds = %6
  %27 = call ptr @strbuf_detach(ptr noundef %4, ptr noundef null)
  call void @llvm.lifetime.end.p0(i64 24, ptr %4) #9
  call void @llvm.lifetime.end.p0(i64 8, ptr %3) #9
  ret ptr %27
}