; Function Attrs: nounwind uwtable
define internal fastcc ptr @escaped_pattern(ptr noundef readonly captures(none) %0) unnamed_addr #0 {
  %2 = alloca %struct.strbuf, align 8
  call void @llvm.lifetime.start.p0(i64 24, ptr nonnull %2) #13
  call void @llvm.memcpy.p0.p0.i64(ptr noundef nonnull align 8 dereferenceable(24) %2, ptr noundef nonnull align 8 dereferenceable(24) @__const.check_rules.unquoted, i64 24, i1 false)
  %3 = load i8, ptr %0, align 1, !tbaa !99
  %.not17 = icmp eq i8 %3, 0
  br i1 %.not17, label %._crit_edge, label %.lr.ph

.lr.ph:                                           ; preds = %1
  %4 = getelementptr inbounds nuw i8, ptr %2, i64 8
  %5 = getelementptr inbounds nuw i8, ptr %2, i64 16
  br label %6

6:                                                ; preds = %.lr.ph, %strbuf_addch.exit16
  %7 = phi i8 [ %3, %.lr.ph ], [ %31, %strbuf_addch.exit16 ]
  %.018 = phi ptr [ %0, %.lr.ph ], [ %30, %strbuf_addch.exit16 ]
  %8 = zext i8 %7 to i64
  %9 = getelementptr inbounds nuw [256 x i8], ptr @sane_ctype, i64 0, i64 %8
  %10 = load i8, ptr %9, align 1, !tbaa !99
  %11 = and i8 %10, 8
  %.not6 = icmp eq i8 %11, 0
  %.pre20 = load i64, ptr %2, align 8, !tbaa !118
  br i1 %.not6, label %20, label %12

12:                                               ; preds = %6
  %.not.i.i = icmp eq i64 %.pre20, 0
  br i1 %.not.i.i, label %strbuf_avail.exit.thread.i, label %strbuf_avail.exit.i

strbuf_avail.exit.i:                              ; preds = %12
  %13 = load i64, ptr %4, align 8, !tbaa !100
  %.neg.i = add i64 %13, 1
  %.not.i = icmp eq i64 %.pre20, %.neg.i
  br i1 %.not.i, label %strbuf_avail.exit.thread.i, label %strbuf_addch.exit

strbuf_avail.exit.thread.i:                       ; preds = %strbuf_avail.exit.i, %12
  call void @strbuf_grow(ptr noundef nonnull %2, i64 noundef 1) #13
  %.pre.i = load i64, ptr %4, align 8, !tbaa !100
  %.pre7.i = add i64 %.pre.i, 1
  br label %strbuf_addch.exit

strbuf_addch.exit:                                ; preds = %strbuf_avail.exit.i, %strbuf_avail.exit.thread.i
  %.pre-phi.i = phi i64 [ %.pre7.i, %strbuf_avail.exit.thread.i ], [ %.neg.i, %strbuf_avail.exit.i ]
  %14 = phi i64 [ %.pre.i, %strbuf_avail.exit.thread.i ], [ %13, %strbuf_avail.exit.i ]
  %15 = load ptr, ptr %5, align 8, !tbaa !97
  store i64 %.pre-phi.i, ptr %4, align 8, !tbaa !100
  %16 = getelementptr inbounds nuw i8, ptr %15, i64 %14
  store i8 92, ptr %16, align 1, !tbaa !99
  %17 = load ptr, ptr %5, align 8, !tbaa !97
  %18 = load i64, ptr %4, align 8, !tbaa !100
  %19 = getelementptr inbounds nuw i8, ptr %17, i64 %18
  store i8 0, ptr %19, align 1, !tbaa !99
  %.pre = load i8, ptr %.018, align 1, !tbaa !99
  %.pre19 = load i64, ptr %2, align 8, !tbaa !118
  br label %20

20:                                               ; preds = %strbuf_addch.exit, %6
  %21 = phi i64 [ %.pre19, %strbuf_addch.exit ], [ %.pre20, %6 ]
  %22 = phi i8 [ %.pre, %strbuf_addch.exit ], [ %7, %6 ]
  %.not.i.i7 = icmp eq i64 %21, 0
  br i1 %.not.i.i7, label %strbuf_avail.exit.thread.i12, label %strbuf_avail.exit.i8

strbuf_avail.exit.i8:                             ; preds = %20
  %23 = load i64, ptr %4, align 8, !tbaa !100
  %.neg.i9 = add i64 %23, 1
  %.not.i10 = icmp eq i64 %21, %.neg.i9
  br i1 %.not.i10, label %strbuf_avail.exit.thread.i12, label %strbuf_addch.exit16

strbuf_avail.exit.thread.i12:                     ; preds = %strbuf_avail.exit.i8, %20
  call void @strbuf_grow(ptr noundef nonnull %2, i64 noundef 1) #13
  %.pre.i14 = load i64, ptr %4, align 8, !tbaa !100
  %.pre7.i15 = add i64 %.pre.i14, 1
  br label %strbuf_addch.exit16

strbuf_addch.exit16:                              ; preds = %strbuf_avail.exit.i8, %strbuf_avail.exit.thread.i12
  %.pre-phi.i11 = phi i64 [ %.pre7.i15, %strbuf_avail.exit.thread.i12 ], [ %.neg.i9, %strbuf_avail.exit.i8 ]
  %24 = phi i64 [ %.pre.i14, %strbuf_avail.exit.thread.i12 ], [ %23, %strbuf_avail.exit.i8 ]
  %25 = load ptr, ptr %5, align 8, !tbaa !97
  store i64 %.pre-phi.i11, ptr %4, align 8, !tbaa !100
  %26 = getelementptr inbounds nuw i8, ptr %25, i64 %24
  store i8 %22, ptr %26, align 1, !tbaa !99
  %27 = load ptr, ptr %5, align 8, !tbaa !97
  %28 = load i64, ptr %4, align 8, !tbaa !100
  %29 = getelementptr inbounds nuw i8, ptr %27, i64 %28
  store i8 0, ptr %29, align 1, !tbaa !99
  %30 = getelementptr inbounds nuw i8, ptr %.018, i64 1
  %31 = load i8, ptr %30, align 1, !tbaa !99
  %.not = icmp eq i8 %31, 0
  br i1 %.not, label %._crit_edge, label %6, !llvm.loop !139

._crit_edge:                                      ; preds = %strbuf_addch.exit16, %1
  %32 = call ptr @strbuf_detach(ptr noundef nonnull %2, ptr noundef null) #13
  call void @llvm.lifetime.end.p0(i64 24, ptr nonnull %2) #13
  ret ptr %32
}